(dp0
I38
I4
sI39
I3
sI40
I7
sI41
I10
sI42
I17
sI43
I30
sI44
I57
sI45
I50
sI46
I59
sI47
I57
sI48
I64
sI49
I68
sI50
I69
sI51
I55
sI52
I55
sI53
I53
sI54
I40
sI55
I43
sI56
I30
sI57
I28
sI58
I31
sI59
I36
sI60
I26
sI61
I20
sI62
I15
sI63
I13
sI64
I10
sI65
I4
sI66
I3
sI67
I7
sI68
I4
sI69
I4
sI70
I2
sI71
I6
sI72
I3
sI73
I3
sI74
I2
sI75
I3
sI77
I1
sI79
I1
sI80
I2
sI81
I3
sI83
I1
sI103
I1
s.